; Function Attrs: mustprogress uwtable
define noundef zeroext i1 @_Z33pme_gpu_mixed_mode_supports_inputRK10t_inputrecPNSt7__cxx1112basic_stringIcSt11char_traitsIcESaIcEEE(ptr nocapture noundef nonnull readonly align 8 dereferenceable(856) %0, ptr noundef %1) local_unnamed_addr #0 personality ptr @__gxx_personality_v0 {
  %3 = alloca %"class.gmx::MessageStringCollector", align 8
  %4 = alloca %"class.std::__cxx11::basic_string", align 8
  call void @_ZN3gmx22MessageStringCollectorC1Ev(ptr noundef nonnull align 8 dereferenceable(8) %3)
  invoke void @_ZN3gmx22MessageStringCollector12startContextEPKc(ptr noundef nonnull align 8 dereferenceable(8) %3, ptr noundef nonnull @.str.8)
          to label %5 unwind label %14

5:                                                ; preds = %2
  %6 = getelementptr inbounds i8, ptr %0, i64 396
  %7 = load i32, ptr %6, align 4
  %8 = icmp ne i32 %7, 0
  invoke void @_ZN3gmx22MessageStringCollector8appendIfEbPKc(ptr noundef nonnull align 8 dereferenceable(8) %3, i1 noundef zeroext %8, ptr noundef nonnull @.str.9)
          to label %9 unwind label %14

9:                                                ; preds = %5
  invoke void @_ZN3gmx22MessageStringCollector13finishContextEv(ptr noundef nonnull align 8 dereferenceable(8) %3)
          to label %10 unwind label %14

10:                                               ; preds = %9
  %.not = icmp eq ptr %1, null
  br i1 %.not, label %16, label %11

11:                                               ; preds = %10
  invoke void @_ZNK3gmx22MessageStringCollector8toStringB5cxx11Ev(ptr dead_on_unwind nonnull writable sret(%"class.std::__cxx11::basic_string") align 8 %4, ptr noundef nonnull align 8 dereferenceable(8) %3)
          to label %12 unwind label %14

12:                                               ; preds = %11
  %13 = call noundef nonnull align 8 dereferenceable(32) ptr @_ZNSt7__cxx1112basic_stringIcSt11char_traitsIcESaIcEEaSEOS4_(ptr noundef nonnull align 8 dereferenceable(32) %1, ptr noundef nonnull align 8 dereferenceable(32) %4) #7
  call void @_ZNSt7__cxx1112basic_stringIcSt11char_traitsIcESaIcEED1Ev(ptr noundef nonnull align 8 dereferenceable(32) %4) #7
  br label %16

14:                                               ; preds = %16, %11, %9, %5, %2
  %15 = landingpad { ptr, i32 }
          cleanup
  call void @_ZN3gmx22MessageStringCollectorD1Ev(ptr noundef nonnull align 8 dereferenceable(8) %3) #7
  resume { ptr, i32 } %15

16:                                               ; preds = %12, %10
  %17 = invoke noundef zeroext i1 @_ZNK3gmx22MessageStringCollector7isEmptyEv(ptr noundef nonnull align 8 dereferenceable(8) %3)
          to label %18 unwind label %14

18:                                               ; preds = %16
  call void @_ZN3gmx22MessageStringCollectorD1Ev(ptr noundef nonnull align 8 dereferenceable(8) %3) #7
  ret i1 %17
}